; Function Attrs: mustprogress nounwind uwtable
define noundef i32 @_ZNK18OpenImageIO_v2_6_09ImageSpec12channelindexENS_17basic_string_viewIcSt11char_traitsIcEEE(ptr nocapture noundef nonnull readonly align 8 dereferenceable(160) %this, ptr nocapture noundef readonly %name) local_unnamed_addr #3 align 2 personality ptr @__gxx_personality_v0 {
entry:
  %nchannels = getelementptr inbounds i8, ptr %this, i64 60
  %0 = load i32, ptr %nchannels, align 4
  %cmp7 = icmp sgt i32 %0, 0
  br i1 %cmp7, label %for.body.lr.ph, label %return

for.body.lr.ph:                                   ; preds = %entry
  %channelnames = getelementptr inbounds i8, ptr %this, i64 96
  %m_len.i.i = getelementptr inbounds i8, ptr %name, i64 8
  br label %for.body

for.body:                                         ; preds = %for.body.lr.ph, %for.inc
  %indvars.iv = phi i64 [ 0, %for.body.lr.ph ], [ %indvars.iv.next, %for.inc ]
  %1 = load ptr, ptr %channelnames, align 8
  %add.ptr.i = getelementptr inbounds %"class.std::__cxx11::basic_string", ptr %1, i64 %indvars.iv
  %call.i = tail call noundef ptr @_ZNKSt7__cxx1112basic_stringIcSt11char_traitsIcESaIcEE4dataEv(ptr noundef nonnull align 8 dereferenceable(32) %add.ptr.i) #28
  %call2.i = tail call noundef i64 @_ZNKSt7__cxx1112basic_stringIcSt11char_traitsIcESaIcEE4sizeEv(ptr noundef nonnull align 8 dereferenceable(32) %add.ptr.i) #28
  %2 = load ptr, ptr %name, align 8
  %3 = load i64, ptr %m_len.i.i, align 8
  %cmp.i = icmp eq i64 %call2.i, %3
  br i1 %cmp.i, label %cond.true.i, label %for.inc

cond.true.i:                                      ; preds = %for.body
  %cmp.i2.i.i = icmp eq i64 %call2.i, 0
  br i1 %cmp.i2.i.i, label %return.loopexit.split.loop.exit12, label %_ZNSt11char_traitsIcE7compareEPKcS2_m.exit.i.i

_ZNSt11char_traitsIcE7compareEPKcS2_m.exit.i.i:   ; preds = %cond.true.i
  %bcmp.i = tail call i32 @bcmp(ptr %call.i, ptr %2, i64 %call2.i)
  %cmp6.not.i.i = icmp eq i32 %bcmp.i, 0
  br i1 %cmp6.not.i.i, label %return.loopexit.split.loop.exit, label %for.inc

for.inc:                                          ; preds = %for.body, %_ZNSt11char_traitsIcE7compareEPKcS2_m.exit.i.i
  %indvars.iv.next = add nuw nsw i64 %indvars.iv, 1
  %4 = load i32, ptr %nchannels, align 4
  %5 = sext i32 %4 to i64
  %cmp = icmp slt i64 %indvars.iv.next, %5
  br i1 %cmp, label %for.body, label %return, !llvm.loop !39

return.loopexit.split.loop.exit:                  ; preds = %_ZNSt11char_traitsIcE7compareEPKcS2_m.exit.i.i
  %6 = trunc i64 %indvars.iv to i32
  br label %return

return.loopexit.split.loop.exit12:                ; preds = %cond.true.i
  %7 = trunc i64 %indvars.iv to i32
  br label %return

return:                                           ; preds = %for.inc, %return.loopexit.split.loop.exit, %return.loopexit.split.loop.exit12, %entry
  %retval.0 = phi i32 [ -1, %entry ], [ %6, %return.loopexit.split.loop.exit ], [ %7, %return.loopexit.split.loop.exit12 ], [ -1, %for.inc ]
  ret i32 %retval.0
}